target datalayout = "e-m:e-p270:32:32-p271:32:32-p272:64:64-i64:64-i128:128-f80:128-n8:16:32:64-S128"
target triple = "x86_64-pc-linux-gnu"

; Function Attrs: inlinehint mustprogress nounwind uwtable
define linkonce_odr noundef ptr @_ZN6icu_779BytesTrie9skipValueEPKhi(ptr noundef %0, i32 noundef %1) #5 comdat align 2 {
  %3 = alloca ptr, align 8
  %4 = alloca i32, align 4
  store ptr %0, ptr %3, align 8, !tbaa !12
  store i32 %1, ptr %4, align 4, !tbaa !13
  %5 = load i32, ptr %4, align 4, !tbaa !13
  %6 = icmp sge i32 %5, 162
  br i1 %6, label %7, label %29

7:                                                ; preds = %2
  %8 = load i32, ptr %4, align 4, !tbaa !13
  %9 = icmp slt i32 %8, 216
  br i1 %9, label %10, label %13

10:                                               ; preds = %7
  %11 = load ptr, ptr %3, align 8, !tbaa !12
  %12 = getelementptr inbounds nuw i8, ptr %11, i32 1
  store ptr %12, ptr %3, align 8, !tbaa !12
  br label %28

13:                                               ; preds = %7
  %14 = load i32, ptr %4, align 4, !tbaa !13
  %15 = icmp slt i32 %14, 252
  br i1 %15, label %16, label %19

16:                                               ; preds = %13
  %17 = load ptr, ptr %3, align 8, !tbaa !12
  %18 = getelementptr inbounds i8, ptr %17, i64 2
  store ptr %18, ptr %3, align 8, !tbaa !12
  br label %27

19:                                               ; preds = %13
  %20 = load i32, ptr %4, align 4, !tbaa !13
  %21 = ashr i32 %20, 1
  %22 = and i32 %21, 1
  %23 = add nsw i32 3, %22
  %24 = load ptr, ptr %3, align 8, !tbaa !12
  %25 = sext i32 %23 to i64
  %26 = getelementptr inbounds i8, ptr %24, i64 %25
  store ptr %26, ptr %3, align 8, !tbaa !12
  br label %27

27:                                               ; preds = %19, %16
  br label %28

28:                                               ; preds = %27, %10
  br label %29

29:                                               ; preds = %28, %2
  %30 = load ptr, ptr %3, align 8, !tbaa !12
  ret ptr %30
}

; Function Attrs: mustprogress nounwind uwtable
define noundef i32 @_ZN6icu_779BytesTrie9readValueEPKhi(ptr noundef %0, i32 noundef %1) #0 align 2 {
  %3 = alloca ptr, align 8
  %4 = alloca i32, align 4
  %5 = alloca i32, align 4
  store ptr %0, ptr %3, align 8, !tbaa !12
  store i32 %1, ptr %4, align 4, !tbaa !13
  call void @llvm.lifetime.start.p0(i64 4, ptr %5) #8
  %6 = load i32, ptr %4, align 4, !tbaa !13
  %7 = icmp slt i32 %6, 81
  br i1 %7, label %8, label %11

8:                                                ; preds = %2
  %9 = load i32, ptr %4, align 4, !tbaa !13
  %10 = sub nsw i32 %9, 16
  store i32 %10, ptr %5, align 4, !tbaa !13
  br label %86

11:                                               ; preds = %2
  %12 = load i32, ptr %4, align 4, !tbaa !13
  %13 = icmp slt i32 %12, 108
  br i1 %13, label %14, label %22

14:                                               ; preds = %11
  %15 = load i32, ptr %4, align 4, !tbaa !13
  %16 = sub nsw i32 %15, 81
  %17 = shl i32 %16, 8
  %18 = load ptr, ptr %3, align 8, !tbaa !12
  %19 = load i8, ptr %18, align 1, !tbaa !14
  %20 = zext i8 %19 to i32
  %21 = or i32 %17, %20
  store i32 %21, ptr %5, align 4, !tbaa !13
  br label %85

22:                                               ; preds = %11
  %23 = load i32, ptr %4, align 4, !tbaa !13
  %24 = icmp slt i32 %23, 126
  br i1 %24, label %25, label %40

25:                                               ; preds = %22
  %26 = load i32, ptr %4, align 4, !tbaa !13
  %27 = sub nsw i32 %26, 108
  %28 = shl i32 %27, 16
  %29 = load ptr, ptr %3, align 8, !tbaa !12
  %30 = getelementptr inbounds i8, ptr %29, i64 0
  %31 = load i8, ptr %30, align 1, !tbaa !14
  %32 = zext i8 %31 to i32
  %33 = shl i32 %32, 8
  %34 = or i32 %28, %33
  %35 = load ptr, ptr %3, align 8, !tbaa !12
  %36 = getelementptr inbounds i8, ptr %35, i64 1
  %37 = load i8, ptr %36, align 1, !tbaa !14
  %38 = zext i8 %37 to i32
  %39 = or i32 %34, %38
  store i32 %39, ptr %5, align 4, !tbaa !13
  br label %84

40:                                               ; preds = %22
  %41 = load i32, ptr %4, align 4, !tbaa !13
  %42 = icmp eq i32 %41, 126
  br i1 %42, label %43, label %60

43:                                               ; preds = %40
  %44 = load ptr, ptr %3, align 8, !tbaa !12
  %45 = getelementptr inbounds i8, ptr %44, i64 0
  %46 = load i8, ptr %45, align 1, !tbaa !14
  %47 = zext i8 %46 to i32
  %48 = shl i32 %47, 16
  %49 = load ptr, ptr %3, align 8, !tbaa !12
  %50 = getelementptr inbounds i8, ptr %49, i64 1
  %51 = load i8, ptr %50, align 1, !tbaa !14
  %52 = zext i8 %51 to i32
  %53 = shl i32 %52, 8
  %54 = or i32 %48, %53
  %55 = load ptr, ptr %3, align 8, !tbaa !12
  %56 = getelementptr inbounds i8, ptr %55, i64 2
  %57 = load i8, ptr %56, align 1, !tbaa !14
  %58 = zext i8 %57 to i32
  %59 = or i32 %54, %58
  store i32 %59, ptr %5, align 4, !tbaa !13
  br label %83

60:                                               ; preds = %40
  %61 = load ptr, ptr %3, align 8, !tbaa !12
  %62 = getelementptr inbounds i8, ptr %61, i64 0
  %63 = load i8, ptr %62, align 1, !tbaa !14
  %64 = zext i8 %63 to i32
  %65 = shl i32 %64, 24
  %66 = load ptr, ptr %3, align 8, !tbaa !12
  %67 = getelementptr inbounds i8, ptr %66, i64 1
  %68 = load i8, ptr %67, align 1, !tbaa !14
  %69 = zext i8 %68 to i32
  %70 = shl i32 %69, 16
  %71 = or i32 %65, %70
  %72 = load ptr, ptr %3, align 8, !tbaa !12
  %73 = getelementptr inbounds i8, ptr %72, i64 2
  %74 = load i8, ptr %73, align 1, !tbaa !14
  %75 = zext i8 %74 to i32
  %76 = shl i32 %75, 8
  %77 = or i32 %71, %76
  %78 = load ptr, ptr %3, align 8, !tbaa !12
  %79 = getelementptr inbounds i8, ptr %78, i64 3
  %80 = load i8, ptr %79, align 1, !tbaa !14
  %81 = zext i8 %80 to i32
  %82 = or i32 %77, %81
  store i32 %82, ptr %5, align 4, !tbaa !13
  br label %83

83:                                               ; preds = %60, %43
  br label %84

84:                                               ; preds = %83, %25
  br label %85

85:                                               ; preds = %84, %14
  br label %86

86:                                               ; preds = %85, %8
  %87 = load i32, ptr %5, align 4, !tbaa !13
  call void @llvm.lifetime.end.p0(i64 4, ptr %5) #8
  ret i32 %87
}

; Function Attrs: mustprogress uwtable
define noundef signext i8 @_ZN6icu_779BytesTrie15findUniqueValueEPKhaRi(ptr noundef %0, i8 noundef signext %1, ptr noundef nonnull align 4 dereferenceable(4) %2) #4 align 2 {
  %4 = alloca i8, align 1
  %5 = alloca ptr, align 8
  %6 = alloca i8, align 1
  %7 = alloca ptr, align 8
  %8 = alloca i32, align 4
  %9 = alloca i32, align 4
  %10 = alloca i8, align 1
  %11 = alloca i32, align 4
  store ptr %0, ptr %5, align 8, !tbaa !12
  store i8 %1, ptr %6, align 1, !tbaa !14
  store ptr %2, ptr %7, align 8, !tbaa !27
  br label %12

12:                                               ; preds = %83, %3
  call void @llvm.lifetime.start.p0(i64 4, ptr %8) #8
  %13 = load ptr, ptr %5, align 8, !tbaa !12
  %14 = getelementptr inbounds nuw i8, ptr %13, i32 1
  store ptr %14, ptr %5, align 8, !tbaa !12
  %15 = load i8, ptr %13, align 1, !tbaa !14
  %16 = zext i8 %15 to i32
  store i32 %16, ptr %8, align 4, !tbaa !13
  %17 = load i32, ptr %8, align 4, !tbaa !13
  %18 = icmp slt i32 %17, 16
  br i1 %18, label %19, label %38

19:                                               ; preds = %12
  %20 = load i32, ptr %8, align 4, !tbaa !13
  %21 = icmp eq i32 %20, 0
  br i1 %21, label %22, label %27

22:                                               ; preds = %19
  %23 = load ptr, ptr %5, align 8, !tbaa !12
  %24 = getelementptr inbounds nuw i8, ptr %23, i32 1
  store ptr %24, ptr %5, align 8, !tbaa !12
  %25 = load i8, ptr %23, align 1, !tbaa !14
  %26 = zext i8 %25 to i32
  store i32 %26, ptr %8, align 4, !tbaa !13
  br label %27

27:                                               ; preds = %22, %19
  %28 = load ptr, ptr %5, align 8, !tbaa !12
  %29 = load i32, ptr %8, align 4, !tbaa !13
  %30 = add nsw i32 %29, 1
  %31 = load i8, ptr %6, align 1, !tbaa !14
  %32 = load ptr, ptr %7, align 8, !tbaa !27
  %33 = call noundef ptr @_ZN6icu_779BytesTrie25findUniqueValueFromBranchEPKhiaRi(ptr noundef %28, i32 noundef %30, i8 noundef signext %31, ptr noundef nonnull align 4 dereferenceable(4) %32)
  store ptr %33, ptr %5, align 8, !tbaa !12
  %34 = load ptr, ptr %5, align 8, !tbaa !12
  %35 = icmp eq ptr %34, null
  br i1 %35, label %36, label %37

36:                                               ; preds = %27
  store i8 0, ptr %4, align 1
  store i32 1, ptr %9, align 4
  br label %81

37:                                               ; preds = %27
  store i8 1, ptr %6, align 1, !tbaa !14
  br label %80

38:                                               ; preds = %12
  %39 = load i32, ptr %8, align 4, !tbaa !13
  %40 = icmp slt i32 %39, 32
  br i1 %40, label %41, label %48

41:                                               ; preds = %38
  %42 = load i32, ptr %8, align 4, !tbaa !13
  %43 = sub nsw i32 %42, 16
  %44 = add nsw i32 %43, 1
  %45 = load ptr, ptr %5, align 8, !tbaa !12
  %46 = sext i32 %44 to i64
  %47 = getelementptr inbounds i8, ptr %45, i64 %46
  store ptr %47, ptr %5, align 8, !tbaa !12
  br label %79

48:                                               ; preds = %38
  call void @llvm.lifetime.start.p0(i64 1, ptr %10) #8
  %49 = load i32, ptr %8, align 4, !tbaa !13
  %50 = and i32 %49, 1
  %51 = trunc i32 %50 to i8
  store i8 %51, ptr %10, align 1, !tbaa !14
  call void @llvm.lifetime.start.p0(i64 4, ptr %11) #8
  %52 = load ptr, ptr %5, align 8, !tbaa !12
  %53 = load i32, ptr %8, align 4, !tbaa !13
  %54 = ashr i32 %53, 1
  %55 = call noundef i32 @_ZN6icu_779BytesTrie9readValueEPKhi(ptr noundef %52, i32 noundef %54)
  store i32 %55, ptr %11, align 4, !tbaa !13
  %56 = load i8, ptr %6, align 1, !tbaa !14
  %57 = icmp ne i8 %56, 0
  br i1 %57, label %58, label %65

58:                                               ; preds = %48
  %59 = load i32, ptr %11, align 4, !tbaa !13
  %60 = load ptr, ptr %7, align 8, !tbaa !27
  %61 = load i32, ptr %60, align 4, !tbaa !13
  %62 = icmp ne i32 %59, %61
  br i1 %62, label %63, label %64

63:                                               ; preds = %58
  store i8 0, ptr %4, align 1
  store i32 1, ptr %9, align 4
  br label %76

64:                                               ; preds = %58
  br label %68

65:                                               ; preds = %48
  %66 = load i32, ptr %11, align 4, !tbaa !13
  %67 = load ptr, ptr %7, align 8, !tbaa !27
  store i32 %66, ptr %67, align 4, !tbaa !13
  store i8 1, ptr %6, align 1, !tbaa !14
  br label %68

68:                                               ; preds = %65, %64
  %69 = load i8, ptr %10, align 1, !tbaa !14
  %70 = icmp ne i8 %69, 0
  br i1 %70, label %71, label %72

71:                                               ; preds = %68
  store i8 1, ptr %4, align 1
  store i32 1, ptr %9, align 4
  br label %76

72:                                               ; preds = %68
  %73 = load ptr, ptr %5, align 8, !tbaa !12
  %74 = load i32, ptr %8, align 4, !tbaa !13
  %75 = call noundef ptr @_ZN6icu_779BytesTrie9skipValueEPKhi(ptr noundef %73, i32 noundef %74)
  store ptr %75, ptr %5, align 8, !tbaa !12
  store i32 0, ptr %9, align 4
  br label %76

76:                                               ; preds = %72, %71, %63
  call void @llvm.lifetime.end.p0(i64 4, ptr %11) #8
  call void @llvm.lifetime.end.p0(i64 1, ptr %10) #8
  %77 = load i32, ptr %9, align 4
  switch i32 %77, label %81 [
    i32 0, label %78
  ]

78:                                               ; preds = %76
  br label %79

79:                                               ; preds = %78, %41
  br label %80

80:                                               ; preds = %79, %37
  store i32 0, ptr %9, align 4
  br label %81

81:                                               ; preds = %80, %76, %36
  call void @llvm.lifetime.end.p0(i64 4, ptr %8) #8
  %82 = load i32, ptr %9, align 4
  switch i32 %82, label %86 [
    i32 0, label %83
    i32 1, label %84
  ]

83:                                               ; preds = %81
  br label %12, !llvm.loop !31

84:                                               ; preds = %81
  %85 = load i8, ptr %4, align 1
  ret i8 %85

86:                                               ; preds = %81
  unreachable
}