; Function Attrs: mustprogress nofree nosync nounwind memory(readwrite, inaccessiblemem: none) uwtable
define noundef signext range(i8 0, 2) i8 @_ZN6icu_779BytesTrie15findUniqueValueEPKhaRi(ptr noundef %0, i8 noundef signext %1, ptr noundef nonnull align 4 dereferenceable(4) %2) local_unnamed_addr #9 align 2 {
  br label %_ZN6icu_779BytesTrie9skipValueEPKhi.exit.outer

_ZN6icu_779BytesTrie9skipValueEPKhi.exit.outer:   ; preds = %_ZN6icu_779BytesTrie9skipValueEPKhi.exit.outer.backedge, %3
  %.032.ph = phi i8 [ %1, %3 ], [ %.032.ph.be, %_ZN6icu_779BytesTrie9skipValueEPKhi.exit.outer.backedge ]
  %.025.ph = phi ptr [ %0, %3 ], [ %.025.ph.be, %_ZN6icu_779BytesTrie9skipValueEPKhi.exit.outer.backedge ]
  br label %_ZN6icu_779BytesTrie9skipValueEPKhi.exit

_ZN6icu_779BytesTrie9skipValueEPKhi.exit:         ; preds = %_ZN6icu_779BytesTrie9skipValueEPKhi.exit.outer, %20
  %.025 = phi ptr [ %23, %20 ], [ %.025.ph, %_ZN6icu_779BytesTrie9skipValueEPKhi.exit.outer ]
  %4 = getelementptr inbounds nuw i8, ptr %.025, i64 1
  %5 = load i8, ptr %.025, align 1, !tbaa !10
  %6 = icmp ult i8 %5, 16
  br i1 %6, label %7, label %18

7:                                                ; preds = %_ZN6icu_779BytesTrie9skipValueEPKhi.exit
  %8 = zext i8 %5 to i32
  %9 = icmp eq i8 %5, 0
  br i1 %9, label %10, label %14

10:                                               ; preds = %7
  %11 = getelementptr inbounds nuw i8, ptr %.025, i64 2
  %12 = load i8, ptr %4, align 1, !tbaa !10
  %13 = zext i8 %12 to i32
  br label %14

14:                                               ; preds = %10, %7
  %.031 = phi i32 [ %13, %10 ], [ %8, %7 ]
  %.126 = phi ptr [ %11, %10 ], [ %4, %7 ]
  %15 = add nuw nsw i32 %.031, 1
  %16 = tail call noundef ptr @_ZN6icu_779BytesTrie25findUniqueValueFromBranchEPKhiaRi(ptr noundef nonnull %.126, i32 noundef %15, i8 noundef signext %.032.ph, ptr noundef nonnull align 4 dereferenceable(4) %2)
  %17 = icmp eq ptr %16, null
  br i1 %17, label %96, label %_ZN6icu_779BytesTrie9skipValueEPKhi.exit.outer.backedge

18:                                               ; preds = %_ZN6icu_779BytesTrie9skipValueEPKhi.exit
  %19 = icmp ult i8 %5, 32
  br i1 %19, label %20, label %24

20:                                               ; preds = %18
  %21 = zext nneg i8 %5 to i64
  %22 = getelementptr i8, ptr %4, i64 %21
  %23 = getelementptr i8, ptr %22, i64 -15
  br label %_ZN6icu_779BytesTrie9skipValueEPKhi.exit

24:                                               ; preds = %18
  %25 = zext i8 %5 to i32
  %26 = and i8 %5, 1
  %27 = lshr i32 %25, 1
  %28 = icmp ult i8 %5, -94
  br i1 %28, label %29, label %31

29:                                               ; preds = %24
  %30 = add nsw i32 %27, -16
  br label %_ZN6icu_779BytesTrie9readValueEPKhi.exit

31:                                               ; preds = %24
  %32 = icmp samesign ult i8 %5, -40
  br i1 %32, label %33, label %39

33:                                               ; preds = %31
  %34 = shl nuw nsw i32 %27, 8
  %35 = add nsw i32 %34, -20736
  %36 = load i8, ptr %4, align 1, !tbaa !10
  %37 = zext i8 %36 to i32
  %38 = or disjoint i32 %35, %37
  br label %_ZN6icu_779BytesTrie9readValueEPKhi.exit

39:                                               ; preds = %31
  %40 = icmp samesign ult i8 %5, -4
  br i1 %40, label %41, label %52

41:                                               ; preds = %39
  %42 = shl nuw nsw i32 %27, 16
  %43 = add nsw i32 %42, -7077888
  %44 = load i8, ptr %4, align 1, !tbaa !10
  %45 = zext i8 %44 to i32
  %46 = shl nuw nsw i32 %45, 8
  %47 = or disjoint i32 %46, %43
  %48 = getelementptr inbounds nuw i8, ptr %.025, i64 2
  %49 = load i8, ptr %48, align 1, !tbaa !10
  %50 = zext i8 %49 to i32
  %51 = or disjoint i32 %47, %50
  br label %_ZN6icu_779BytesTrie9readValueEPKhi.exit

52:                                               ; preds = %39
  %53 = icmp eq i32 %27, 126
  %54 = load i8, ptr %4, align 1, !tbaa !10
  %55 = zext i8 %54 to i32
  %56 = getelementptr inbounds nuw i8, ptr %.025, i64 2
  %57 = load i8, ptr %56, align 1, !tbaa !10
  %58 = zext i8 %57 to i32
  %59 = getelementptr inbounds nuw i8, ptr %.025, i64 3
  %60 = load i8, ptr %59, align 1, !tbaa !10
  %61 = zext i8 %60 to i32
  br i1 %53, label %62, label %67

62:                                               ; preds = %52
  %63 = shl nuw nsw i32 %55, 16
  %64 = shl nuw nsw i32 %58, 8
  %65 = or disjoint i32 %64, %63
  %66 = or disjoint i32 %65, %61
  br label %_ZN6icu_779BytesTrie9readValueEPKhi.exit

67:                                               ; preds = %52
  %68 = shl nuw i32 %55, 24
  %69 = shl nuw nsw i32 %58, 16
  %70 = or disjoint i32 %69, %68
  %71 = shl nuw nsw i32 %61, 8
  %72 = or disjoint i32 %70, %71
  %73 = getelementptr inbounds nuw i8, ptr %.025, i64 4
  %74 = load i8, ptr %73, align 1, !tbaa !10
  %75 = zext i8 %74 to i32
  %76 = or disjoint i32 %72, %75
  br label %_ZN6icu_779BytesTrie9readValueEPKhi.exit

_ZN6icu_779BytesTrie9readValueEPKhi.exit:         ; preds = %29, %33, %41, %62, %67
  %.0.i = phi i32 [ %30, %29 ], [ %38, %33 ], [ %51, %41 ], [ %66, %62 ], [ %76, %67 ]
  %.not = icmp eq i8 %.032.ph, 0
  br i1 %.not, label %79, label %77

77:                                               ; preds = %_ZN6icu_779BytesTrie9readValueEPKhi.exit
  %78 = load i32, ptr %2, align 4, !tbaa !20
  %.not41 = icmp eq i32 %.0.i, %78
  br i1 %.not41, label %80, label %96

79:                                               ; preds = %_ZN6icu_779BytesTrie9readValueEPKhi.exit
  store i32 %.0.i, ptr %2, align 4, !tbaa !20
  br label %80

80:                                               ; preds = %77, %79
  %.436 = phi i8 [ %.032.ph, %77 ], [ 1, %79 ]
  %.not42 = icmp eq i8 %26, 0
  br i1 %.not42, label %81, label %96

81:                                               ; preds = %80
  %82 = icmp ugt i8 %5, -95
  br i1 %82, label %83, label %_ZN6icu_779BytesTrie9skipValueEPKhi.exit.outer.backedge

_ZN6icu_779BytesTrie9skipValueEPKhi.exit.outer.backedge: ; preds = %81, %85, %89, %91, %14
  %.032.ph.be = phi i8 [ 1, %14 ], [ %.436, %91 ], [ %.436, %89 ], [ %.436, %85 ], [ %.436, %81 ]
  %.025.ph.be = phi ptr [ %16, %14 ], [ %95, %91 ], [ %90, %89 ], [ %86, %85 ], [ %4, %81 ]
  br label %_ZN6icu_779BytesTrie9skipValueEPKhi.exit.outer

83:                                               ; preds = %81
  %84 = icmp samesign ult i8 %5, -40
  br i1 %84, label %85, label %87

85:                                               ; preds = %83
  %86 = getelementptr inbounds nuw i8, ptr %.025, i64 2
  br label %_ZN6icu_779BytesTrie9skipValueEPKhi.exit.outer.backedge

87:                                               ; preds = %83
  %88 = icmp samesign ult i8 %5, -4
  br i1 %88, label %89, label %91

89:                                               ; preds = %87
  %90 = getelementptr inbounds nuw i8, ptr %.025, i64 3
  br label %_ZN6icu_779BytesTrie9skipValueEPKhi.exit.outer.backedge

91:                                               ; preds = %87
  %92 = and i32 %27, 1
  %93 = zext nneg i32 %92 to i64
  %94 = getelementptr inbounds nuw i8, ptr %4, i64 %93
  %95 = getelementptr inbounds nuw i8, ptr %94, i64 3
  br label %_ZN6icu_779BytesTrie9skipValueEPKhi.exit.outer.backedge

96:                                               ; preds = %14, %80, %77
  %.1.ph = phi i8 [ 1, %80 ], [ 0, %77 ], [ 0, %14 ]
  ret i8 %.1.ph
}